target datalayout = "e-m:e-p270:32:32-p271:32:32-p272:64:64-i64:64-i128:128-f80:128-n8:16:32:64-S128"
target triple = "x86_64-pc-linux-gnu"

%struct.zstream = type { i64, i64, i64, i64, %struct.z_stream_s, ptr }
%struct.z_stream_s = type { ptr, i32, i64, ptr, i32, i64, ptr, ptr, ptr, ptr, ptr, i32, i64, i64 }
%struct.gzfile = type { %struct.zstream, i64, i32, i32, i64, i64, i64, i64, i32, i32, i64, ptr, ptr, ptr, ptr, i64, i64 }
%struct.RString = type { %struct.RBasic, i64, %union.anon }
%struct.RBasic = type { i64, i64 }
%union.anon = type { %struct.anon }
%struct.anon = type { ptr, %union.anon.0 }
%union.anon.0 = type { i64 }
%struct.anon.1 = type { [1 x i8] }
%struct.read_raw_arg = type { i64, %union.anon.3 }
%union.anon.3 = type { [2 x i64] }
%struct.anon.4 = type { i64, i64 }

@cGzError = internal global i64 0, align 8
@rb_eEOFError = external global i64, align 8
@rb_eNoMethodError = external global i64, align 8
@.str.185 = private unnamed_addr constant [25 x i8] c"unexpected end of string\00", align 1

; Function Attrs: inlinehint nounwind sspstrong willreturn memory(read) uwtable
define internal i64 @RB_FL_TEST_RAW(i64 noundef %0, i64 noundef %1) #6 {
  %3 = alloca i64, align 8
  %4 = alloca i64, align 8
  store i64 %0, ptr %3, align 8, !tbaa !6
  store i64 %1, ptr %4, align 8, !tbaa !6
  %5 = load i64, ptr %3, align 8, !tbaa !6
  %6 = inttoptr i64 %5 to ptr
  %7 = getelementptr inbounds nuw %struct.RBasic, ptr %6, i32 0, i32 0
  %8 = load i64, ptr %7, align 8, !tbaa !91
  %9 = load i64, ptr %4, align 8, !tbaa !6
  %10 = and i64 %8, %9
  ret i64 %10
}

; Function Attrs: inlinehint nounwind sspstrong willreturn memory(read) uwtable
define internal zeroext i1 @RB_FL_ANY_RAW(i64 noundef %0, i64 noundef %1) #6 {
  %3 = alloca i64, align 8
  %4 = alloca i64, align 8
  store i64 %0, ptr %3, align 8, !tbaa !6
  store i64 %1, ptr %4, align 8, !tbaa !6
  %5 = load i64, ptr %3, align 8, !tbaa !6
  %6 = load i64, ptr %4, align 8, !tbaa !6
  %7 = call i64 @RB_FL_TEST_RAW(i64 noundef %5, i64 noundef %6) #25
  %8 = icmp ne i64 %7, 0
  ret i1 %8
}

; Function Attrs: inlinehint nounwind sspstrong willreturn memory(read, argmem: readwrite) uwtable
define internal void @rbimpl_rstring_getmem(ptr dead_on_unwind noalias writable sret(%struct.RString) align 8 %0, i64 noundef %1) #9 {
  %3 = alloca i64, align 8
  store i64 %1, ptr %3, align 8, !tbaa !6
  %4 = load i64, ptr %3, align 8, !tbaa !6
  %5 = call zeroext i1 @RB_FL_ANY_RAW(i64 noundef %4, i64 noundef 8192) #25
  br i1 %5, label %6, label %9

6:                                                ; preds = %2
  %7 = load i64, ptr %3, align 8, !tbaa !6
  %8 = inttoptr i64 %7 to ptr
  call void @llvm.memcpy.p0.p0.i64(ptr align 8 %0, ptr align 8 %8, i64 40, i1 false), !tbaa.struct !92
  br label %20

9:                                                ; preds = %2
  %10 = load i64, ptr %3, align 8, !tbaa !6
  %11 = call i64 @RSTRING_LEN(i64 noundef %10) #25
  %12 = getelementptr inbounds nuw %struct.RString, ptr %0, i32 0, i32 1
  store i64 %11, ptr %12, align 8, !tbaa !88
  %13 = load i64, ptr %3, align 8, !tbaa !6
  %14 = inttoptr i64 %13 to ptr
  %15 = getelementptr inbounds nuw %struct.RString, ptr %14, i32 0, i32 2
  %16 = getelementptr inbounds nuw %struct.anon.1, ptr %15, i32 0, i32 0
  %17 = getelementptr inbounds [1 x i8], ptr %16, i64 0, i64 0
  %18 = getelementptr inbounds nuw %struct.RString, ptr %0, i32 0, i32 2
  %19 = getelementptr inbounds nuw %struct.anon, ptr %18, i32 0, i32 0
  store ptr %17, ptr %19, align 8, !tbaa !68
  br label %20

20:                                               ; preds = %9, %6
  ret void
}

; Function Attrs: nounwind sspstrong uwtable
define internal void @zstream_append_input(ptr noundef %0, ptr noundef %1, i64 noundef %2) #0 {
  %4 = alloca ptr, align 8
  %5 = alloca ptr, align 8
  %6 = alloca i64, align 8
  store ptr %0, ptr %4, align 8, !tbaa !21
  store ptr %1, ptr %5, align 8, !tbaa !19
  store i64 %2, ptr %6, align 8, !tbaa !6
  %7 = load i64, ptr %6, align 8, !tbaa !6
  %8 = icmp sle i64 %7, 0
  br i1 %8, label %9, label %10

9:                                                ; preds = %3
  br label %37

10:                                               ; preds = %3
  %11 = load ptr, ptr %4, align 8, !tbaa !21
  %12 = getelementptr inbounds nuw %struct.zstream, ptr %11, i32 0, i32 2
  %13 = load i64, ptr %12, align 8, !tbaa !28
  %14 = call zeroext i1 @RB_NIL_P(i64 noundef %13) #24
  br i1 %14, label %15, label %30

15:                                               ; preds = %10
  %16 = load i64, ptr %6, align 8, !tbaa !6
  %17 = call i64 @rb_str_buf_new(i64 noundef %16)
  %18 = load ptr, ptr %4, align 8, !tbaa !21
  %19 = getelementptr inbounds nuw %struct.zstream, ptr %18, i32 0, i32 2
  store i64 %17, ptr %19, align 8, !tbaa !28
  %20 = load ptr, ptr %4, align 8, !tbaa !21
  %21 = getelementptr inbounds nuw %struct.zstream, ptr %20, i32 0, i32 2
  %22 = load i64, ptr %21, align 8, !tbaa !28
  %23 = load ptr, ptr %5, align 8, !tbaa !19
  %24 = load i64, ptr %6, align 8, !tbaa !6
  %25 = call i64 @rb_str_cat(i64 noundef %22, ptr noundef %23, i64 noundef %24)
  %26 = load ptr, ptr %4, align 8, !tbaa !21
  %27 = getelementptr inbounds nuw %struct.zstream, ptr %26, i32 0, i32 2
  %28 = load i64, ptr %27, align 8, !tbaa !28
  %29 = call i64 @rb_obj_hide(i64 noundef %28)
  br label %37

30:                                               ; preds = %10
  %31 = load ptr, ptr %4, align 8, !tbaa !21
  %32 = getelementptr inbounds nuw %struct.zstream, ptr %31, i32 0, i32 2
  %33 = load i64, ptr %32, align 8, !tbaa !28
  %34 = load ptr, ptr %5, align 8, !tbaa !19
  %35 = load i64, ptr %6, align 8, !tbaa !6
  %36 = call i64 @rb_str_cat(i64 noundef %33, ptr noundef %34, i64 noundef %35)
  br label %37

37:                                               ; preds = %9, %30, %15
  ret void
}

; Function Attrs: inlinehint nounwind sspstrong uwtable
define internal ptr @RSTRING_PTR(i64 noundef %0) #3 {
  %2 = alloca i64, align 8
  %3 = alloca ptr, align 8
  %4 = alloca %struct.RString, align 8
  store i64 %0, ptr %2, align 8, !tbaa !6
  call void @llvm.lifetime.start.p0(i64 8, ptr %3) #23
  %5 = load i64, ptr %2, align 8, !tbaa !6
  call void @rbimpl_rstring_getmem(ptr dead_on_unwind writable sret(%struct.RString) align 8 %4, i64 noundef %5) #28
  %6 = getelementptr inbounds nuw %struct.RString, ptr %4, i32 0, i32 2
  %7 = getelementptr inbounds nuw %struct.anon, ptr %6, i32 0, i32 0
  %8 = load ptr, ptr %7, align 8, !tbaa !68
  store ptr %8, ptr %3, align 8, !tbaa !19
  %9 = load ptr, ptr %3, align 8, !tbaa !19
  call void @llvm.lifetime.end.p0(i64 8, ptr %3) #23
  ret ptr %9
}

; Function Attrs: nounwind sspstrong uwtable
define internal i64 @gzfile_read_raw(ptr noundef %0, i64 noundef %1) #0 {
  %3 = alloca ptr, align 8
  %4 = alloca i64, align 8
  %5 = alloca %struct.read_raw_arg, align 8
  store ptr %0, ptr %3, align 8, !tbaa !57
  store i64 %1, ptr %4, align 8, !tbaa !6
  call void @llvm.lifetime.start.p0(i64 24, ptr %5) #23
  %6 = load ptr, ptr %3, align 8, !tbaa !57
  %7 = getelementptr inbounds nuw %struct.gzfile, ptr %6, i32 0, i32 1
  %8 = load i64, ptr %7, align 8, !tbaa !46
  %9 = getelementptr inbounds nuw %struct.read_raw_arg, ptr %5, i32 0, i32 0
  store i64 %8, ptr %9, align 8, !tbaa !135
  %10 = getelementptr inbounds nuw %struct.read_raw_arg, ptr %5, i32 0, i32 1
  %11 = getelementptr inbounds nuw %struct.anon.4, ptr %10, i32 0, i32 0
  store i64 4097, ptr %11, align 8, !tbaa !68
  %12 = load i64, ptr %4, align 8, !tbaa !6
  %13 = getelementptr inbounds nuw %struct.read_raw_arg, ptr %5, i32 0, i32 1
  %14 = getelementptr inbounds nuw %struct.anon.4, ptr %13, i32 0, i32 1
  store i64 %12, ptr %14, align 8, !tbaa !68
  %15 = ptrtoint ptr %5 to i64
  %16 = ptrtoint ptr %5 to i64
  %17 = load i64, ptr @rb_eEOFError, align 8, !tbaa !6
  %18 = load i64, ptr @rb_eNoMethodError, align 8, !tbaa !6
  %19 = call i64 (ptr, i64, ptr, i64, ...) @rb_rescue2(ptr noundef @gzfile_read_raw_partial, i64 noundef %15, ptr noundef @gzfile_read_raw_rescue, i64 noundef %16, i64 noundef %17, i64 noundef %18, i64 noundef 0)
  call void @llvm.lifetime.end.p0(i64 24, ptr %5) #23
  ret i64 %19
}

; Function Attrs: inlinehint nounwind sspstrong willreturn memory(read) uwtable
define internal i64 @RSTRING_LEN(i64 noundef %0) #6 {
  %2 = alloca i64, align 8
  store i64 %0, ptr %2, align 8, !tbaa !6
  %3 = load i64, ptr %2, align 8, !tbaa !6
  %4 = inttoptr i64 %3 to ptr
  %5 = getelementptr inbounds nuw %struct.RString, ptr %4, i32 0, i32 1
  %6 = load i64, ptr %5, align 8, !tbaa !88
  ret i64 %6
}

; Function Attrs: inlinehint nounwind sspstrong willreturn memory(none) uwtable
define internal zeroext i1 @RB_NIL_P(i64 noundef %0) #5 {
  %2 = alloca i64, align 8
  store i64 %0, ptr %2, align 8, !tbaa !6
  %3 = load i64, ptr %2, align 8, !tbaa !6
  %4 = icmp eq i64 %3, 4
  ret i1 %4
}

; Function Attrs: nounwind sspstrong uwtable
define internal i32 @gzfile_read_raw_ensure(ptr noundef %0, i64 noundef %1, i64 noundef %2) #0 {
  %4 = alloca i32, align 4
  %5 = alloca ptr, align 8
  %6 = alloca i64, align 8
  %7 = alloca i64, align 8
  %8 = alloca i64, align 8
  %9 = alloca i32, align 4
  %10 = alloca ptr, align 8
  %11 = alloca ptr, align 8
  store ptr %0, ptr %5, align 8, !tbaa !57
  store i64 %1, ptr %6, align 8, !tbaa !6
  store i64 %2, ptr %7, align 8, !tbaa !6
  call void @llvm.lifetime.start.p0(i64 8, ptr %8) #23
  %12 = load ptr, ptr %5, align 8, !tbaa !57
  %13 = getelementptr inbounds nuw %struct.gzfile, ptr %12, i32 0, i32 1
  %14 = load i64, ptr %13, align 8, !tbaa !46
  %15 = icmp eq i64 %14, 36
  br i1 %15, label %16, label %33

16:                                               ; preds = %3
  %17 = load ptr, ptr %5, align 8, !tbaa !57
  %18 = getelementptr inbounds nuw %struct.gzfile, ptr %17, i32 0, i32 0
  %19 = getelementptr inbounds nuw %struct.zstream, ptr %18, i32 0, i32 2
  %20 = load i64, ptr %19, align 8, !tbaa !76
  %21 = call zeroext i1 @RB_NIL_P(i64 noundef %20) #24
  br i1 %21, label %30, label %22

22:                                               ; preds = %16
  %23 = load ptr, ptr %5, align 8, !tbaa !57
  %24 = getelementptr inbounds nuw %struct.gzfile, ptr %23, i32 0, i32 0
  %25 = getelementptr inbounds nuw %struct.zstream, ptr %24, i32 0, i32 2
  %26 = load i64, ptr %25, align 8, !tbaa !76
  %27 = call i64 @RSTRING_LEN(i64 noundef %26) #25
  %28 = load i64, ptr %6, align 8, !tbaa !6
  %29 = icmp slt i64 %27, %28
  br i1 %29, label %30, label %32

30:                                               ; preds = %22, %16
  %31 = load i64, ptr @cGzError, align 8, !tbaa !6
  call void (i64, ptr, ...) @rb_raise(i64 noundef %31, ptr noundef @.str.185) #26
  unreachable

32:                                               ; preds = %22
  br label %33

33:                                               ; preds = %32, %3
  br label %34

34:                                               ; preds = %57, %33
  %35 = load ptr, ptr %5, align 8, !tbaa !57
  %36 = getelementptr inbounds nuw %struct.gzfile, ptr %35, i32 0, i32 0
  %37 = getelementptr inbounds nuw %struct.zstream, ptr %36, i32 0, i32 2
  %38 = load i64, ptr %37, align 8, !tbaa !76
  %39 = call zeroext i1 @RB_NIL_P(i64 noundef %38) #24
  br i1 %39, label %48, label %40

40:                                               ; preds = %34
  %41 = load ptr, ptr %5, align 8, !tbaa !57
  %42 = getelementptr inbounds nuw %struct.gzfile, ptr %41, i32 0, i32 0
  %43 = getelementptr inbounds nuw %struct.zstream, ptr %42, i32 0, i32 2
  %44 = load i64, ptr %43, align 8, !tbaa !76
  %45 = call i64 @RSTRING_LEN(i64 noundef %44) #25
  %46 = load i64, ptr %6, align 8, !tbaa !6
  %47 = icmp slt i64 %45, %46
  br label %48

48:                                               ; preds = %40, %34
  %49 = phi i1 [ true, %34 ], [ %47, %40 ]
  br i1 %49, label %50, label %67

50:                                               ; preds = %48
  %51 = load ptr, ptr %5, align 8, !tbaa !57
  %52 = load i64, ptr %7, align 8, !tbaa !6
  %53 = call i64 @gzfile_read_raw(ptr noundef %51, i64 noundef %52)
  store i64 %53, ptr %8, align 8, !tbaa !6
  %54 = load i64, ptr %8, align 8, !tbaa !6
  %55 = call zeroext i1 @RB_NIL_P(i64 noundef %54) #24
  br i1 %55, label %56, label %57

56:                                               ; preds = %50
  store i32 0, ptr %4, align 4
  store i32 1, ptr %9, align 4
  br label %68

57:                                               ; preds = %50
  call void @llvm.lifetime.start.p0(i64 8, ptr %10) #23
  store ptr %8, ptr %10, align 8, !tbaa !12
  call void asm sideeffect "", "*m,~{dirflag},~{fpsr},~{flags}"(ptr elementtype(ptr) %10) #23, !srcloc !148
  %58 = load ptr, ptr %10, align 8, !tbaa !12
  store ptr %58, ptr %11, align 8, !tbaa !12
  call void @llvm.lifetime.end.p0(i64 8, ptr %10) #23
  %59 = load ptr, ptr %11, align 8, !tbaa !12
  %60 = load volatile i64, ptr %59, align 8, !tbaa !6
  %61 = load ptr, ptr %5, align 8, !tbaa !57
  %62 = getelementptr inbounds nuw %struct.gzfile, ptr %61, i32 0, i32 0
  %63 = load i64, ptr %8, align 8, !tbaa !6
  %64 = call ptr @RSTRING_PTR(i64 noundef %63)
  %65 = load i64, ptr %8, align 8, !tbaa !6
  %66 = call i64 @RSTRING_LEN(i64 noundef %65) #25
  call void @zstream_append_input(ptr noundef %62, ptr noundef %64, i64 noundef %66)
  br label %34, !llvm.loop !149

67:                                               ; preds = %48
  store i32 1, ptr %4, align 4
  store i32 1, ptr %9, align 4
  br label %68

68:                                               ; preds = %67, %56
  call void @llvm.lifetime.end.p0(i64 8, ptr %8) #23
  %69 = load i32, ptr %4, align 4
  ret i32 %69
}