; Function Attrs: nounwind sspstrong uwtable
define internal fastcc range(i32 0, 2) i32 @gzfile_read_raw_ensure(ptr noundef captures(none) %0, i64 noundef range(i64 1, 65538) %1, i64 noundef %2) unnamed_addr #0 {
  %4 = alloca %struct.read_raw_arg, align 8
  %5 = alloca i64, align 8
  %6 = alloca ptr, align 8
  call void @llvm.lifetime.start.p0(i64 8, ptr nonnull %5) #18
  %7 = getelementptr inbounds nuw i8, ptr %0, i64 152
  %8 = load i64, ptr %7, align 8, !tbaa !117
  %9 = icmp eq i64 %8, 36
  br i1 %9, label %10, label %21

10:                                               ; preds = %3
  %11 = getelementptr inbounds nuw i8, ptr %0, i64 16
  %12 = load i64, ptr %11, align 8, !tbaa !154
  %13 = icmp eq i64 %12, 4
  br i1 %13, label %19, label %14

14:                                               ; preds = %10
  %15 = inttoptr i64 %12 to ptr
  %16 = getelementptr inbounds nuw i8, ptr %15, i64 16
  %17 = load i64, ptr %16, align 8, !tbaa !21
  %18 = icmp slt i64 %17, %1
  br i1 %18, label %19, label %21

19:                                               ; preds = %14, %10
  %20 = load i64, ptr @cGzError, align 8, !tbaa !6
  tail call void (i64, ptr, ...) @rb_raise(i64 noundef %20, ptr noundef nonnull @.str.185) #19
  unreachable

21:                                               ; preds = %14, %3
  %22 = getelementptr inbounds nuw i8, ptr %0, i64 16
  %23 = getelementptr inbounds nuw i8, ptr %4, i64 8
  %24 = getelementptr inbounds nuw i8, ptr %4, i64 16
  %25 = ptrtoint ptr %4 to i64
  br label %zstream_append_input.exit

zstream_append_input.exit:                        ; preds = %zstream_append_input.exit.backedge, %21
  %26 = load i64, ptr %22, align 8, !tbaa !154
  %27 = icmp eq i64 %26, 4
  br i1 %27, label %.critedge, label %28

28:                                               ; preds = %zstream_append_input.exit
  %29 = inttoptr i64 %26 to ptr
  %30 = getelementptr inbounds nuw i8, ptr %29, i64 16
  %31 = load i64, ptr %30, align 8, !tbaa !21
  %32 = icmp slt i64 %31, %1
  br i1 %32, label %.critedge, label %59

.critedge:                                        ; preds = %zstream_append_input.exit, %28
  %.val = load i64, ptr %7, align 8, !tbaa !117
  call void @llvm.lifetime.start.p0(i64 24, ptr nonnull %4) #18
  store i64 %.val, ptr %4, align 8, !tbaa !255
  store i64 4097, ptr %23, align 8, !tbaa !149
  store i64 %2, ptr %24, align 8, !tbaa !149
  %33 = load i64, ptr @rb_eEOFError, align 8, !tbaa !6
  %34 = load i64, ptr @rb_eNoMethodError, align 8, !tbaa !6
  %35 = call i64 (ptr, i64, ptr, i64, ...) @rb_rescue2(ptr noundef nonnull @gzfile_read_raw_partial, i64 noundef %25, ptr noundef nonnull @gzfile_read_raw_rescue, i64 noundef %25, i64 noundef %33, i64 noundef %34, i64 noundef 0) #18
  call void @llvm.lifetime.end.p0(i64 24, ptr nonnull %4) #18
  store i64 %35, ptr %5, align 8, !tbaa !6
  %36 = icmp eq i64 %35, 4
  br i1 %36, label %59, label %37

37:                                               ; preds = %.critedge
  call void @llvm.lifetime.start.p0(i64 8, ptr nonnull %6) #18
  store ptr %5, ptr %6, align 8, !tbaa !10
  call void asm sideeffect "", "*m,~{dirflag},~{fpsr},~{flags}"(ptr nonnull elementtype(ptr) %6) #18, !srcloc !275
  %38 = load ptr, ptr %6, align 8, !tbaa !10
  call void @llvm.lifetime.end.p0(i64 8, ptr nonnull %6) #18
  %39 = load volatile i64, ptr %38, align 8, !tbaa !6
  %40 = load i64, ptr %5, align 8, !tbaa !6
  %41 = inttoptr i64 %40 to ptr
  %42 = load i64, ptr %41, align 8, !tbaa !16, !noalias !276
  %43 = and i64 %42, 8192
  %.not.i.i = icmp eq i64 %43, 0
  %44 = getelementptr inbounds nuw i8, ptr %41, i64 24
  br i1 %.not.i.i, label %RSTRING_PTR.exit, label %45

45:                                               ; preds = %37
  %.sroa.2.0.copyload.i = load ptr, ptr %44, align 8
  br label %RSTRING_PTR.exit

RSTRING_PTR.exit:                                 ; preds = %37, %45
  %.sroa.2.0.i = phi ptr [ %.sroa.2.0.copyload.i, %45 ], [ %44, %37 ]
  %46 = getelementptr inbounds nuw i8, ptr %41, i64 16
  %47 = load i64, ptr %46, align 8, !tbaa !21
  %48 = icmp slt i64 %47, 1
  br i1 %48, label %zstream_append_input.exit.backedge, label %49

zstream_append_input.exit.backedge:               ; preds = %RSTRING_PTR.exit, %52, %57
  br label %zstream_append_input.exit, !llvm.loop !279

49:                                               ; preds = %RSTRING_PTR.exit
  %50 = load i64, ptr %22, align 8, !tbaa !51
  %51 = icmp eq i64 %50, 4
  br i1 %51, label %52, label %57

52:                                               ; preds = %49
  %53 = call i64 @rb_str_buf_new(i64 noundef %47) #18
  store i64 %53, ptr %22, align 8, !tbaa !51
  %54 = call i64 @rb_str_cat(i64 noundef %53, ptr noundef %.sroa.2.0.i, i64 noundef %47) #18
  %55 = load i64, ptr %22, align 8, !tbaa !51
  %56 = call i64 @rb_obj_hide(i64 noundef %55) #18
  br label %zstream_append_input.exit.backedge

57:                                               ; preds = %49
  %58 = call i64 @rb_str_cat(i64 noundef %50, ptr noundef %.sroa.2.0.i, i64 noundef %47) #18
  br label %zstream_append_input.exit.backedge

59:                                               ; preds = %28, %.critedge
  %.0 = phi i32 [ 0, %.critedge ], [ 1, %28 ]
  call void @llvm.lifetime.end.p0(i64 8, ptr nonnull %5) #18
  ret i32 %.0
}